; Function Attrs: nounwind uwtable
define dso_local void @add_variable_to_head(ptr noundef captures(none) %0, ptr noundef %1, ptr noundef %2) local_unnamed_addr #0 {
  %4 = tail call ptr @mm_alloc(i64 noundef 24) #6
  store ptr %1, ptr %4, align 8
  %5 = getelementptr inbounds nuw i8, ptr %4, i64 8
  store ptr %2, ptr %5, align 8
  %6 = load ptr, ptr %0, align 8
  %7 = getelementptr inbounds nuw i8, ptr %4, i64 16
  store ptr %6, ptr %7, align 8
  store ptr %4, ptr %0, align 8
  ret void
}